; Function Attrs: mustprogress nofree norecurse nosync nounwind willreturn memory(argmem: write) uwtable
define dso_local void @_ZN7msdfgen13LinearSegmentC2ENS_7Vector2ES1_NS_9EdgeColorE(ptr nocapture noundef nonnull writeonly align 8 dereferenceable(48) %this, double %p0.coerce0, double %p0.coerce1, double %p1.coerce0, double %p1.coerce1, i32 noundef %edgeColor) unnamed_addr #5 align 2 personality ptr @__gxx_personality_v0 {
entry:
  %color.i = getelementptr inbounds i8, ptr %this, i64 8
  store i32 %edgeColor, ptr %color.i, align 8
  store ptr getelementptr inbounds ({ [18 x ptr] }, ptr @_ZTVN7msdfgen13LinearSegmentE, i64 0, i32 0, i64 2), ptr %this, align 8
  %scevgep = getelementptr inbounds i8, ptr %this, i64 16
  store double %p0.coerce0, ptr %scevgep, align 8
  %p0.sroa.2.0.arrayidx.sroa_idx = getelementptr inbounds i8, ptr %this, i64 24
  store double %p0.coerce1, ptr %p0.sroa.2.0.arrayidx.sroa_idx, align 8
  %arrayidx4 = getelementptr inbounds i8, ptr %this, i64 32
  store double %p1.coerce0, ptr %arrayidx4, align 8
  %p1.sroa.2.0.arrayidx4.sroa_idx = getelementptr inbounds i8, ptr %this, i64 40
  store double %p1.coerce1, ptr %p1.sroa.2.0.arrayidx4.sroa_idx, align 8
  ret void
}